target datalayout = "e-m:e-p270:32:32-p271:32:32-p272:64:64-i64:64-i128:128-f80:128-n8:16:32:64-S128"
target triple = "x86_64-pc-linux-gnu"

%struct.kvs_bucket = type { ptr, i32, i32 }

@.str = private unnamed_addr constant [6 x i8] c"kvs.c\00", align 1
@plugin_type = external constant [0 x i8], align 1
@hash_size = internal global i32 0, align 4
@kvs_hash = internal global ptr null, align 8
@no_dup_keys = internal global i32 0, align 4
@.str.6 = private unnamed_addr constant [29 x i8] c"%s: %s: mpi/pmi2: in kvs_put\00", align 1
@__func__.kvs_put = private unnamed_addr constant [8 x i8] c"kvs_put\00", align 1
@.str.7 = private unnamed_addr constant [32 x i8] c"%s: %s: mpi/pmi2: put kvs %s=%s\00", align 1

; Function Attrs: inlinehint nounwind uwtable
define internal i32 @_hash(ptr noundef %0) #6 {
  %2 = alloca ptr, align 8
  %3 = alloca i32, align 4
  %4 = alloca i32, align 4
  %5 = alloca i32, align 4
  %6 = alloca i8, align 1
  store ptr %0, ptr %2, align 8
  call void @llvm.lifetime.start.p0(i64 4, ptr %3) #7
  call void @llvm.lifetime.start.p0(i64 4, ptr %4) #7
  call void @llvm.lifetime.start.p0(i64 4, ptr %5) #7
  store i32 0, ptr %5, align 4
  call void @llvm.lifetime.start.p0(i64 1, ptr %6) #7
  %7 = load ptr, ptr %2, align 8
  %8 = call i64 @strlen(ptr noundef %7) #8
  %9 = trunc i64 %8 to i32
  store i32 %9, ptr %3, align 4
  store i32 0, ptr %4, align 4
  br label %10

10:                                               ; preds = %30, %1
  %11 = load i32, ptr %4, align 4
  %12 = load i32, ptr %3, align 4
  %13 = icmp slt i32 %11, %12
  br i1 %13, label %14, label %33

14:                                               ; preds = %10
  %15 = load i32, ptr %5, align 4
  %16 = lshr i32 %15, 24
  %17 = trunc i32 %16 to i8
  store i8 %17, ptr %6, align 1
  %18 = load i32, ptr %5, align 4
  %19 = shl i32 %18, 8
  %20 = load i8, ptr %6, align 1
  %21 = zext i8 %20 to i32
  %22 = load ptr, ptr %2, align 8
  %23 = load i32, ptr %4, align 4
  %24 = sext i32 %23 to i64
  %25 = getelementptr inbounds i8, ptr %22, i64 %24
  %26 = load i8, ptr %25, align 1
  %27 = zext i8 %26 to i32
  %28 = xor i32 %21, %27
  %29 = or i32 %19, %28
  store i32 %29, ptr %5, align 4
  br label %30

30:                                               ; preds = %14
  %31 = load i32, ptr %4, align 4
  %32 = add nsw i32 %31, 1
  store i32 %32, ptr %4, align 4
  br label %10, !llvm.loop !12

33:                                               ; preds = %10
  %34 = load i32, ptr %5, align 4
  call void @llvm.lifetime.end.p0(i64 1, ptr %6) #7
  call void @llvm.lifetime.end.p0(i64 4, ptr %5) #7
  call void @llvm.lifetime.end.p0(i64 4, ptr %4) #7
  call void @llvm.lifetime.end.p0(i64 4, ptr %3) #7
  ret i32 %34
}

; Function Attrs: nounwind uwtable
define dso_local i32 @kvs_put(ptr noundef %0, ptr noundef %1) #0 {
  %3 = alloca i32, align 4
  %4 = alloca ptr, align 8
  %5 = alloca ptr, align 8
  %6 = alloca ptr, align 8
  %7 = alloca i32, align 4
  %8 = alloca i32, align 4
  store ptr %0, ptr %4, align 8
  store ptr %1, ptr %5, align 8
  call void @llvm.lifetime.start.p0(i64 8, ptr %6) #7
  call void @llvm.lifetime.start.p0(i64 4, ptr %7) #7
  br label %9

9:                                                ; preds = %2
  br label %10

10:                                               ; preds = %9
  %11 = call i32 @slurm_get_log_level()
  %12 = icmp sge i32 %11, 7
  br i1 %12, label %13, label %14

13:                                               ; preds = %10
  call void (i32, ptr, ...) @slurm_log_var(i32 noundef 7, ptr noundef @.str.6, ptr noundef @plugin_type, ptr noundef @__func__.kvs_put)
  br label %14

14:                                               ; preds = %13, %10
  br label %15

15:                                               ; preds = %14
  br label %16

16:                                               ; preds = %15
  br label %17

17:                                               ; preds = %16
  br label %18

18:                                               ; preds = %17
  %19 = load ptr, ptr @kvs_hash, align 8
  %20 = load ptr, ptr %4, align 8
  %21 = call i32 @_hash(ptr noundef %20)
  %22 = load i32, ptr @hash_size, align 4
  %23 = urem i32 %21, %22
  %24 = zext i32 %23 to i64
  %25 = getelementptr inbounds nuw %struct.kvs_bucket, ptr %19, i64 %24
  store ptr %25, ptr %6, align 8
  %26 = load i32, ptr @no_dup_keys, align 4
  %27 = icmp ne i32 %26, 0
  br i1 %27, label %83, label %28

28:                                               ; preds = %18
  store i32 0, ptr %7, align 4
  br label %29

29:                                               ; preds = %79, %28
  %30 = load i32, ptr %7, align 4
  %31 = load ptr, ptr %6, align 8
  %32 = getelementptr inbounds nuw %struct.kvs_bucket, ptr %31, i32 0, i32 1
  %33 = load i32, ptr %32, align 8
  %34 = icmp ult i32 %30, %33
  br i1 %34, label %35, label %82

35:                                               ; preds = %29
  %36 = load ptr, ptr %4, align 8
  %37 = load ptr, ptr %6, align 8
  %38 = getelementptr inbounds nuw %struct.kvs_bucket, ptr %37, i32 0, i32 0
  %39 = load ptr, ptr %38, align 8
  %40 = load i32, ptr %7, align 4
  %41 = mul nsw i32 %40, 2
  %42 = sext i32 %41 to i64
  %43 = getelementptr inbounds ptr, ptr %39, i64 %42
  %44 = load ptr, ptr %43, align 8
  %45 = call i32 @slurm_xstrcmp(ptr noundef %36, ptr noundef %44)
  %46 = icmp ne i32 %45, 0
  br i1 %46, label %78, label %47

47:                                               ; preds = %35
  %48 = load ptr, ptr %6, align 8
  %49 = getelementptr inbounds nuw %struct.kvs_bucket, ptr %48, i32 0, i32 0
  %50 = load ptr, ptr %49, align 8
  %51 = load i32, ptr %7, align 4
  %52 = mul nsw i32 %51, 2
  %53 = add nsw i32 %52, 1
  %54 = sext i32 %53 to i64
  %55 = getelementptr inbounds ptr, ptr %50, i64 %54
  call void @slurm_xfree(ptr noundef %55)
  %56 = load ptr, ptr %5, align 8
  %57 = call ptr @slurm_xstrdup(ptr noundef %56)
  %58 = load ptr, ptr %6, align 8
  %59 = getelementptr inbounds nuw %struct.kvs_bucket, ptr %58, i32 0, i32 0
  %60 = load ptr, ptr %59, align 8
  %61 = load i32, ptr %7, align 4
  %62 = mul nsw i32 %61, 2
  %63 = add nsw i32 %62, 1
  %64 = sext i32 %63 to i64
  %65 = getelementptr inbounds ptr, ptr %60, i64 %64
  store ptr %57, ptr %65, align 8
  br label %66

66:                                               ; preds = %47
  br label %67

67:                                               ; preds = %66
  %68 = call i32 @slurm_get_log_level()
  %69 = icmp sge i32 %68, 5
  br i1 %69, label %70, label %73

70:                                               ; preds = %67
  %71 = load ptr, ptr %4, align 8
  %72 = load ptr, ptr %5, align 8
  call void (i32, ptr, ...) @slurm_log_var(i32 noundef 5, ptr noundef @.str.7, ptr noundef @plugin_type, ptr noundef @__func__.kvs_put, ptr noundef %71, ptr noundef %72)
  br label %73

73:                                               ; preds = %70, %67
  br label %74

74:                                               ; preds = %73
  br label %75

75:                                               ; preds = %74
  br label %76

76:                                               ; preds = %75
  br label %77

77:                                               ; preds = %76
  store i32 0, ptr %3, align 4
  store i32 1, ptr %8, align 4
  br label %144

78:                                               ; preds = %35
  br label %79

79:                                               ; preds = %78
  %80 = load i32, ptr %7, align 4
  %81 = add nsw i32 %80, 1
  store i32 %81, ptr %7, align 4
  br label %29, !llvm.loop !13

82:                                               ; preds = %29
  br label %83

83:                                               ; preds = %82, %18
  %84 = load ptr, ptr %6, align 8
  %85 = getelementptr inbounds nuw %struct.kvs_bucket, ptr %84, i32 0, i32 1
  %86 = load i32, ptr %85, align 8
  %87 = mul i32 %86, 2
  %88 = load ptr, ptr %6, align 8
  %89 = getelementptr inbounds nuw %struct.kvs_bucket, ptr %88, i32 0, i32 2
  %90 = load i32, ptr %89, align 4
  %91 = icmp uge i32 %87, %90
  br i1 %91, label %92, label %105

92:                                               ; preds = %83
  %93 = load ptr, ptr %6, align 8
  %94 = getelementptr inbounds nuw %struct.kvs_bucket, ptr %93, i32 0, i32 2
  %95 = load i32, ptr %94, align 4
  %96 = add i32 %95, 16
  store i32 %96, ptr %94, align 4
  %97 = load ptr, ptr %6, align 8
  %98 = getelementptr inbounds nuw %struct.kvs_bucket, ptr %97, i32 0, i32 0
  %99 = load ptr, ptr %6, align 8
  %100 = getelementptr inbounds nuw %struct.kvs_bucket, ptr %99, i32 0, i32 2
  %101 = load i32, ptr %100, align 4
  %102 = zext i32 %101 to i64
  %103 = mul i64 %102, 8
  %104 = call ptr @slurm_xrecalloc(ptr noundef %98, i64 noundef 1, i64 noundef %103, i1 noundef zeroext true, i1 noundef zeroext false, ptr noundef @.str, i32 noundef 300, ptr noundef @__func__.kvs_put)
  br label %105

105:                                              ; preds = %92, %83
  %106 = load ptr, ptr %6, align 8
  %107 = getelementptr inbounds nuw %struct.kvs_bucket, ptr %106, i32 0, i32 1
  %108 = load i32, ptr %107, align 8
  store i32 %108, ptr %7, align 4
  %109 = load ptr, ptr %4, align 8
  %110 = call ptr @slurm_xstrdup(ptr noundef %109)
  %111 = load ptr, ptr %6, align 8
  %112 = getelementptr inbounds nuw %struct.kvs_bucket, ptr %111, i32 0, i32 0
  %113 = load ptr, ptr %112, align 8
  %114 = load i32, ptr %7, align 4
  %115 = mul nsw i32 %114, 2
  %116 = sext i32 %115 to i64
  %117 = getelementptr inbounds ptr, ptr %113, i64 %116
  store ptr %110, ptr %117, align 8
  %118 = load ptr, ptr %5, align 8
  %119 = call ptr @slurm_xstrdup(ptr noundef %118)
  %120 = load ptr, ptr %6, align 8
  %121 = getelementptr inbounds nuw %struct.kvs_bucket, ptr %120, i32 0, i32 0
  %122 = load ptr, ptr %121, align 8
  %123 = load i32, ptr %7, align 4
  %124 = mul nsw i32 %123, 2
  %125 = add nsw i32 %124, 1
  %126 = sext i32 %125 to i64
  %127 = getelementptr inbounds ptr, ptr %122, i64 %126
  store ptr %119, ptr %127, align 8
  %128 = load ptr, ptr %6, align 8
  %129 = getelementptr inbounds nuw %struct.kvs_bucket, ptr %128, i32 0, i32 1
  %130 = load i32, ptr %129, align 8
  %131 = add i32 %130, 1
  store i32 %131, ptr %129, align 8
  br label %132

132:                                              ; preds = %105
  br label %133

133:                                              ; preds = %132
  %134 = call i32 @slurm_get_log_level()
  %135 = icmp sge i32 %134, 7
  br i1 %135, label %136, label %139

136:                                              ; preds = %133
  %137 = load ptr, ptr %4, align 8
  %138 = load ptr, ptr %5, align 8
  call void (i32, ptr, ...) @slurm_log_var(i32 noundef 7, ptr noundef @.str.7, ptr noundef @plugin_type, ptr noundef @__func__.kvs_put, ptr noundef %137, ptr noundef %138)
  br label %139

139:                                              ; preds = %136, %133
  br label %140

140:                                              ; preds = %139
  br label %141

141:                                              ; preds = %140
  br label %142

142:                                              ; preds = %141
  br label %143

143:                                              ; preds = %142
  store i32 0, ptr %3, align 4
  store i32 1, ptr %8, align 4
  br label %144

144:                                              ; preds = %143, %77
  call void @llvm.lifetime.end.p0(i64 4, ptr %7) #7
  call void @llvm.lifetime.end.p0(i64 8, ptr %6) #7
  %145 = load i32, ptr %3, align 4
  ret i32 %145
}