; Function Attrs: nounwind uwtable
define dso_local noundef i32 @kvs_put(ptr noundef %0, ptr noundef %1) local_unnamed_addr #0 {
  %3 = tail call i32 @slurm_get_log_level() #6
  %4 = icmp sgt i32 %3, 6
  br i1 %4, label %5, label %6

5:                                                ; preds = %2
  tail call void (i32, ptr, ...) @slurm_log_var(i32 noundef 7, ptr noundef nonnull @.str.6, ptr noundef nonnull @plugin_type, ptr noundef nonnull @__func__.kvs_put) #6
  br label %6

6:                                                ; preds = %5, %2
  %7 = load ptr, ptr @kvs_hash, align 8
  %8 = tail call i64 @strlen(ptr noundef nonnull readonly dereferenceable(1) %0) #7
  %9 = trunc i64 %8 to i32
  %10 = icmp sgt i32 %9, 0
  br i1 %10, label %.lr.ph.preheader.i, label %_hash.exit

.lr.ph.preheader.i:                               ; preds = %6
  %wide.trip.count.i = and i64 %8, 2147483647
  br label %.lr.ph.i

.lr.ph.i:                                         ; preds = %.lr.ph.i, %.lr.ph.preheader.i
  %indvars.iv.i = phi i64 [ 0, %.lr.ph.preheader.i ], [ %indvars.iv.next.i, %.lr.ph.i ]
  %.0910.i = phi i32 [ 0, %.lr.ph.preheader.i ], [ %17, %.lr.ph.i ]
  %11 = lshr i32 %.0910.i, 24
  %12 = shl i32 %.0910.i, 8
  %13 = getelementptr inbounds nuw i8, ptr %0, i64 %indvars.iv.i
  %14 = load i8, ptr %13, align 1
  %15 = zext i8 %14 to i32
  %16 = xor i32 %11, %15
  %17 = or disjoint i32 %16, %12
  %indvars.iv.next.i = add nuw nsw i64 %indvars.iv.i, 1
  %exitcond.not.i = icmp eq i64 %indvars.iv.next.i, %wide.trip.count.i
  br i1 %exitcond.not.i, label %_hash.exit, label %.lr.ph.i, !llvm.loop !10

_hash.exit:                                       ; preds = %.lr.ph.i, %6
  %.09.lcssa.i = phi i32 [ 0, %6 ], [ %17, %.lr.ph.i ]
  %18 = load i32, ptr @hash_size, align 4
  %19 = urem i32 %.09.lcssa.i, %18
  %20 = zext nneg i32 %19 to i64
  %21 = getelementptr inbounds nuw %struct.kvs_bucket, ptr %7, i64 %20
  %.b = load i1, ptr @no_dup_keys, align 4
  %.phi.trans.insert = getelementptr inbounds nuw i8, ptr %21, i64 8
  %.pre = load i32, ptr %.phi.trans.insert, align 8
  br i1 %.b, label %.loopexit, label %.preheader

.preheader:                                       ; preds = %_hash.exit
  %.not34 = icmp eq i32 %.pre, 0
  br i1 %.not34, label %.loopexit, label %.lr.ph

22:                                               ; preds = %.lr.ph
  %indvars.iv.next = add nuw nsw i64 %indvars.iv, 1
  %23 = load i32, ptr %.phi.trans.insert, align 8
  %24 = zext i32 %23 to i64
  %25 = icmp samesign ult i64 %indvars.iv.next, %24
  br i1 %25, label %.lr.ph, label %.loopexit, !llvm.loop !13

.lr.ph:                                           ; preds = %.preheader, %22
  %indvars.iv = phi i64 [ %indvars.iv.next, %22 ], [ 0, %.preheader ]
  %26 = load ptr, ptr %21, align 8
  %27 = shl nuw nsw i64 %indvars.iv, 1
  %28 = getelementptr inbounds nuw ptr, ptr %26, i64 %27
  %29 = load ptr, ptr %28, align 8
  %30 = tail call i32 @slurm_xstrcmp(ptr noundef nonnull %0, ptr noundef %29) #6
  %.not = icmp eq i32 %30, 0
  br i1 %.not, label %31, label %22

31:                                               ; preds = %.lr.ph
  %32 = load ptr, ptr %21, align 8
  %33 = and i64 %27, 4294967294
  %34 = or disjoint i64 %33, 1
  %35 = getelementptr inbounds nuw ptr, ptr %32, i64 %34
  tail call void @slurm_xfree(ptr noundef nonnull %35) #6
  %36 = tail call ptr @slurm_xstrdup(ptr noundef %1) #6
  %37 = load ptr, ptr %21, align 8
  %38 = getelementptr inbounds nuw ptr, ptr %37, i64 %34
  store ptr %36, ptr %38, align 8
  %39 = tail call i32 @slurm_get_log_level() #6
  %40 = icmp sgt i32 %39, 4
  br i1 %40, label %.sink.split, label %65

.loopexit:                                        ; preds = %22, %_hash.exit, %.preheader
  %41 = phi i32 [ 0, %.preheader ], [ %.pre, %_hash.exit ], [ %23, %22 ]
  %42 = getelementptr inbounds nuw i8, ptr %21, i64 8
  %43 = shl i32 %41, 1
  %44 = getelementptr inbounds nuw i8, ptr %21, i64 12
  %45 = load i32, ptr %44, align 4
  %.not31 = icmp ult i32 %43, %45
  br i1 %.not31, label %51, label %46

46:                                               ; preds = %.loopexit
  %47 = add i32 %45, 16
  store i32 %47, ptr %44, align 4
  %48 = zext i32 %47 to i64
  %49 = shl nuw nsw i64 %48, 3
  %50 = tail call ptr @slurm_xrecalloc(ptr noundef nonnull %21, i64 noundef 1, i64 noundef %49, i1 noundef zeroext true, i1 noundef zeroext false, ptr noundef nonnull @.str, i32 noundef 300, ptr noundef nonnull @__func__.kvs_put) #6
  %.pre38 = load i32, ptr %42, align 8
  %.pre39 = shl nsw i32 %.pre38, 1
  br label %51

51:                                               ; preds = %46, %.loopexit
  %.pre-phi = phi i32 [ %.pre39, %46 ], [ %43, %.loopexit ]
  %52 = tail call ptr @slurm_xstrdup(ptr noundef nonnull %0) #6
  %53 = load ptr, ptr %21, align 8
  %54 = sext i32 %.pre-phi to i64
  %55 = getelementptr inbounds ptr, ptr %53, i64 %54
  store ptr %52, ptr %55, align 8
  %56 = tail call ptr @slurm_xstrdup(ptr noundef %1) #6
  %57 = load ptr, ptr %21, align 8
  %58 = or disjoint i32 %.pre-phi, 1
  %59 = sext i32 %58 to i64
  %60 = getelementptr inbounds ptr, ptr %57, i64 %59
  store ptr %56, ptr %60, align 8
  %61 = load i32, ptr %42, align 8
  %62 = add i32 %61, 1
  store i32 %62, ptr %42, align 8
  %63 = tail call i32 @slurm_get_log_level() #6
  %64 = icmp sgt i32 %63, 6
  br i1 %64, label %.sink.split, label %65

.sink.split:                                      ; preds = %51, %31
  %.sink = phi i32 [ 5, %31 ], [ 7, %51 ]
  tail call void (i32, ptr, ...) @slurm_log_var(i32 noundef %.sink, ptr noundef nonnull @.str.7, ptr noundef nonnull @plugin_type, ptr noundef nonnull @__func__.kvs_put, ptr noundef nonnull %0, ptr noundef %1) #6
  br label %65

65:                                               ; preds = %.sink.split, %51, %31
  ret i32 0
}